; Function Attrs: mustprogress nofree norecurse nosync nounwind willreturn memory(read, inaccessiblemem: none) uwtable
define noundef zeroext i1 @_ZNK6casadi11FmuFunction11all_regularEv(ptr nocapture noundef nonnull readonly align 8 dereferenceable(1752) %0) local_unnamed_addr #10 align 2 {
  %2 = getelementptr inbounds i8, ptr %0, i64 1312
  %3 = load ptr, ptr %2, align 8
  %4 = getelementptr inbounds i8, ptr %0, i64 1320
  %5 = load ptr, ptr %4, align 8
  %.not1619 = icmp eq ptr %3, %5
  br i1 %.not1619, label %._crit_edge, label %.lr.ph

6:                                                ; preds = %.lr.ph
  %7 = getelementptr inbounds i8, ptr %.sroa.013.020, i64 16
  %.not16 = icmp eq ptr %7, %5
  br i1 %.not16, label %._crit_edge, label %.lr.ph

.lr.ph:                                           ; preds = %1, %6
  %.sroa.013.020 = phi ptr [ %7, %6 ], [ %3, %1 ]
  %8 = load i32, ptr %.sroa.013.020, align 8
  %.not8 = icmp eq i32 %8, 0
  br i1 %.not8, label %6, label %.loopexit

._crit_edge:                                      ; preds = %6, %1
  %9 = getelementptr inbounds i8, ptr %0, i64 1336
  %10 = load ptr, ptr %9, align 8
  %11 = getelementptr inbounds i8, ptr %0, i64 1344
  %12 = load ptr, ptr %11, align 8
  %.not1721 = icmp eq ptr %10, %12
  br i1 %.not1721, label %.loopexit, label %.lr.ph24

.lr.ph24:                                         ; preds = %._crit_edge, %.lr.ph24
  %.sroa.09.022 = phi ptr [ %14, %.lr.ph24 ], [ %10, %._crit_edge ]
  %13 = load i32, ptr %.sroa.09.022, align 8
  %.not = icmp eq i32 %13, 0
  %14 = getelementptr inbounds i8, ptr %.sroa.09.022, i64 56
  %.not17 = icmp ne ptr %14, %12
  %or.cond.not = select i1 %.not, i1 %.not17, i1 false
  br i1 %or.cond.not, label %.lr.ph24, label %.loopexit

.loopexit:                                        ; preds = %.lr.ph, %.lr.ph24, %._crit_edge
  %.0 = phi i1 [ true, %._crit_edge ], [ %.not, %.lr.ph24 ], [ false, %.lr.ph ]
  ret i1 %.0
}